target datalayout = "e-m:e-p270:32:32-p271:32:32-p272:64:64-i64:64-i128:128-f80:128-n8:16:32:64-S128"
target triple = "x86_64-pc-linux-gnu"

%struct.bn_mont_ctx_st = type { i32, %struct.bignum_st, %struct.bignum_st, %struct.bignum_st, [2 x i64], i32 }
%struct.bignum_st = type { ptr, i32, i32, i32, i32 }

; Function Attrs: nounwind uwtable
define internal i32 @bn_from_montgomery_word(ptr noundef %0, ptr noundef %1, ptr noundef %2) #0 {
  %4 = alloca i32, align 4
  %5 = alloca ptr, align 8
  %6 = alloca ptr, align 8
  %7 = alloca ptr, align 8
  %8 = alloca ptr, align 8
  %9 = alloca ptr, align 8
  %10 = alloca ptr, align 8
  %11 = alloca ptr, align 8
  %12 = alloca i64, align 8
  %13 = alloca i64, align 8
  %14 = alloca i64, align 8
  %15 = alloca i32, align 4
  %16 = alloca i32, align 4
  %17 = alloca i32, align 4
  %18 = alloca i32, align 4
  %19 = alloca i32, align 4
  store ptr %0, ptr %5, align 8, !tbaa !3
  store ptr %1, ptr %6, align 8, !tbaa !3
  store ptr %2, ptr %7, align 8, !tbaa !8
  call void @llvm.lifetime.start.p0(i64 8, ptr %8) #3
  call void @llvm.lifetime.start.p0(i64 8, ptr %9) #3
  call void @llvm.lifetime.start.p0(i64 8, ptr %10) #3
  call void @llvm.lifetime.start.p0(i64 8, ptr %11) #3
  call void @llvm.lifetime.start.p0(i64 8, ptr %12) #3
  call void @llvm.lifetime.start.p0(i64 8, ptr %13) #3
  call void @llvm.lifetime.start.p0(i64 8, ptr %14) #3
  call void @llvm.lifetime.start.p0(i64 4, ptr %15) #3
  call void @llvm.lifetime.start.p0(i64 4, ptr %16) #3
  call void @llvm.lifetime.start.p0(i64 4, ptr %17) #3
  call void @llvm.lifetime.start.p0(i64 4, ptr %18) #3
  %20 = load ptr, ptr %7, align 8, !tbaa !8
  %21 = getelementptr inbounds nuw %struct.bn_mont_ctx_st, ptr %20, i32 0, i32 2
  store ptr %21, ptr %8, align 8, !tbaa !3
  %22 = load ptr, ptr %8, align 8, !tbaa !3
  %23 = getelementptr inbounds nuw %struct.bignum_st, ptr %22, i32 0, i32 1
  %24 = load i32, ptr %23, align 8, !tbaa !18
  store i32 %24, ptr %15, align 4, !tbaa !12
  %25 = load i32, ptr %15, align 4, !tbaa !12
  %26 = icmp eq i32 %25, 0
  br i1 %26, label %27, label %30

27:                                               ; preds = %3
  %28 = load ptr, ptr %5, align 8, !tbaa !3
  %29 = getelementptr inbounds nuw %struct.bignum_st, ptr %28, i32 0, i32 1
  store i32 0, ptr %29, align 8, !tbaa !18
  store i32 1, ptr %4, align 4
  store i32 1, ptr %19, align 4
  br label %213

30:                                               ; preds = %3
  %31 = load i32, ptr %15, align 4, !tbaa !12
  %32 = mul nsw i32 2, %31
  store i32 %32, ptr %16, align 4, !tbaa !12
  %33 = load ptr, ptr %6, align 8, !tbaa !3
  %34 = load i32, ptr %16, align 4, !tbaa !12
  %35 = call ptr @bn_wexpand(ptr noundef %33, i32 noundef %34)
  %36 = icmp eq ptr %35, null
  br i1 %36, label %37, label %38

37:                                               ; preds = %30
  store i32 0, ptr %4, align 4
  store i32 1, ptr %19, align 4
  br label %213

38:                                               ; preds = %30
  %39 = load ptr, ptr %8, align 8, !tbaa !3
  %40 = getelementptr inbounds nuw %struct.bignum_st, ptr %39, i32 0, i32 3
  %41 = load i32, ptr %40, align 8, !tbaa !21
  %42 = load ptr, ptr %6, align 8, !tbaa !3
  %43 = getelementptr inbounds nuw %struct.bignum_st, ptr %42, i32 0, i32 3
  %44 = load i32, ptr %43, align 8, !tbaa !21
  %45 = xor i32 %44, %41
  store i32 %45, ptr %43, align 8, !tbaa !21
  %46 = load ptr, ptr %8, align 8, !tbaa !3
  %47 = getelementptr inbounds nuw %struct.bignum_st, ptr %46, i32 0, i32 0
  %48 = load ptr, ptr %47, align 8, !tbaa !19
  store ptr %48, ptr %10, align 8, !tbaa !23
  %49 = load ptr, ptr %6, align 8, !tbaa !3
  %50 = getelementptr inbounds nuw %struct.bignum_st, ptr %49, i32 0, i32 0
  %51 = load ptr, ptr %50, align 8, !tbaa !19
  store ptr %51, ptr %11, align 8, !tbaa !23
  %52 = load ptr, ptr %6, align 8, !tbaa !3
  %53 = getelementptr inbounds nuw %struct.bignum_st, ptr %52, i32 0, i32 1
  %54 = load i32, ptr %53, align 8, !tbaa !18
  store i32 %54, ptr %18, align 4, !tbaa !12
  store i32 0, ptr %17, align 4, !tbaa !12
  br label %55

55:                                               ; preds = %73, %38
  %56 = load i32, ptr %17, align 4, !tbaa !12
  %57 = load i32, ptr %16, align 4, !tbaa !12
  %58 = icmp slt i32 %56, %57
  br i1 %58, label %59, label %76

59:                                               ; preds = %55
  %60 = load i32, ptr %17, align 4, !tbaa !12
  %61 = load i32, ptr %18, align 4, !tbaa !12
  %62 = sub i32 %60, %61
  %63 = lshr i32 %62, 31
  %64 = zext i32 %63 to i64
  %65 = sub i64 0, %64
  store i64 %65, ptr %13, align 8, !tbaa !24
  %66 = load i64, ptr %13, align 8, !tbaa !24
  %67 = load ptr, ptr %11, align 8, !tbaa !23
  %68 = load i32, ptr %17, align 4, !tbaa !12
  %69 = sext i32 %68 to i64
  %70 = getelementptr inbounds i64, ptr %67, i64 %69
  %71 = load i64, ptr %70, align 8, !tbaa !24
  %72 = and i64 %71, %66
  store i64 %72, ptr %70, align 8, !tbaa !24
  br label %73

73:                                               ; preds = %59
  %74 = load i32, ptr %17, align 4, !tbaa !12
  %75 = add nsw i32 %74, 1
  store i32 %75, ptr %17, align 4, !tbaa !12
  br label %55, !llvm.loop !26

76:                                               ; preds = %55
  %77 = load i32, ptr %16, align 4, !tbaa !12
  %78 = load ptr, ptr %6, align 8, !tbaa !3
  %79 = getelementptr inbounds nuw %struct.bignum_st, ptr %78, i32 0, i32 1
  store i32 %77, ptr %79, align 8, !tbaa !18
  %80 = load ptr, ptr %6, align 8, !tbaa !3
  %81 = getelementptr inbounds nuw %struct.bignum_st, ptr %80, i32 0, i32 4
  %82 = load i32, ptr %81, align 4, !tbaa !22
  %83 = or i32 %82, 0
  store i32 %83, ptr %81, align 4, !tbaa !22
  %84 = load ptr, ptr %7, align 8, !tbaa !8
  %85 = getelementptr inbounds nuw %struct.bn_mont_ctx_st, ptr %84, i32 0, i32 4
  %86 = getelementptr inbounds [2 x i64], ptr %85, i64 0, i64 0
  %87 = load i64, ptr %86, align 8, !tbaa !24
  store i64 %87, ptr %12, align 8, !tbaa !24
  store i64 0, ptr %14, align 8, !tbaa !24
  store i32 0, ptr %17, align 4, !tbaa !12
  br label %88

88:                                               ; preds = %140, %76
  %89 = load i32, ptr %17, align 4, !tbaa !12
  %90 = load i32, ptr %15, align 4, !tbaa !12
  %91 = icmp slt i32 %89, %90
  br i1 %91, label %92, label %145

92:                                               ; preds = %88
  %93 = load ptr, ptr %11, align 8, !tbaa !23
  %94 = load ptr, ptr %10, align 8, !tbaa !23
  %95 = load i32, ptr %15, align 4, !tbaa !12
  %96 = load ptr, ptr %11, align 8, !tbaa !23
  %97 = getelementptr inbounds i64, ptr %96, i64 0
  %98 = load i64, ptr %97, align 8, !tbaa !24
  %99 = load i64, ptr %12, align 8, !tbaa !24
  %100 = mul i64 %98, %99
  %101 = and i64 %100, -1
  %102 = call i64 @bn_mul_add_words(ptr noundef %93, ptr noundef %94, i32 noundef %95, i64 noundef %101)
  store i64 %102, ptr %13, align 8, !tbaa !24
  %103 = load i64, ptr %13, align 8, !tbaa !24
  %104 = load i64, ptr %14, align 8, !tbaa !24
  %105 = add i64 %103, %104
  %106 = load ptr, ptr %11, align 8, !tbaa !23
  %107 = load i32, ptr %15, align 4, !tbaa !12
  %108 = sext i32 %107 to i64
  %109 = getelementptr inbounds i64, ptr %106, i64 %108
  %110 = load i64, ptr %109, align 8, !tbaa !24
  %111 = add i64 %105, %110
  %112 = and i64 %111, -1
  store i64 %112, ptr %13, align 8, !tbaa !24
  %113 = load i64, ptr %13, align 8, !tbaa !24
  %114 = load ptr, ptr %11, align 8, !tbaa !23
  %115 = load i32, ptr %15, align 4, !tbaa !12
  %116 = sext i32 %115 to i64
  %117 = getelementptr inbounds i64, ptr %114, i64 %116
  %118 = load i64, ptr %117, align 8, !tbaa !24
  %119 = icmp ne i64 %113, %118
  %120 = zext i1 %119 to i32
  %121 = sext i32 %120 to i64
  %122 = load i64, ptr %14, align 8, !tbaa !24
  %123 = or i64 %122, %121
  store i64 %123, ptr %14, align 8, !tbaa !24
  %124 = load i64, ptr %13, align 8, !tbaa !24
  %125 = load ptr, ptr %11, align 8, !tbaa !23
  %126 = load i32, ptr %15, align 4, !tbaa !12
  %127 = sext i32 %126 to i64
  %128 = getelementptr inbounds i64, ptr %125, i64 %127
  %129 = load i64, ptr %128, align 8, !tbaa !24
  %130 = icmp ule i64 %124, %129
  %131 = zext i1 %130 to i32
  %132 = sext i32 %131 to i64
  %133 = load i64, ptr %14, align 8, !tbaa !24
  %134 = and i64 %133, %132
  store i64 %134, ptr %14, align 8, !tbaa !24
  %135 = load i64, ptr %13, align 8, !tbaa !24
  %136 = load ptr, ptr %11, align 8, !tbaa !23
  %137 = load i32, ptr %15, align 4, !tbaa !12
  %138 = sext i32 %137 to i64
  %139 = getelementptr inbounds i64, ptr %136, i64 %138
  store i64 %135, ptr %139, align 8, !tbaa !24
  br label %140

140:                                              ; preds = %92
  %141 = load i32, ptr %17, align 4, !tbaa !12
  %142 = add nsw i32 %141, 1
  store i32 %142, ptr %17, align 4, !tbaa !12
  %143 = load ptr, ptr %11, align 8, !tbaa !23
  %144 = getelementptr inbounds nuw i64, ptr %143, i32 1
  store ptr %144, ptr %11, align 8, !tbaa !23
  br label %88, !llvm.loop !28

145:                                              ; preds = %88
  %146 = load ptr, ptr %5, align 8, !tbaa !3
  %147 = load i32, ptr %15, align 4, !tbaa !12
  %148 = call ptr @bn_wexpand(ptr noundef %146, i32 noundef %147)
  %149 = icmp eq ptr %148, null
  br i1 %149, label %150, label %151

150:                                              ; preds = %145
  store i32 0, ptr %4, align 4
  store i32 1, ptr %19, align 4
  br label %213

151:                                              ; preds = %145
  %152 = load i32, ptr %15, align 4, !tbaa !12
  %153 = load ptr, ptr %5, align 8, !tbaa !3
  %154 = getelementptr inbounds nuw %struct.bignum_st, ptr %153, i32 0, i32 1
  store i32 %152, ptr %154, align 8, !tbaa !18
  %155 = load ptr, ptr %5, align 8, !tbaa !3
  %156 = getelementptr inbounds nuw %struct.bignum_st, ptr %155, i32 0, i32 4
  %157 = load i32, ptr %156, align 4, !tbaa !22
  %158 = or i32 %157, 0
  store i32 %158, ptr %156, align 4, !tbaa !22
  %159 = load ptr, ptr %6, align 8, !tbaa !3
  %160 = getelementptr inbounds nuw %struct.bignum_st, ptr %159, i32 0, i32 3
  %161 = load i32, ptr %160, align 8, !tbaa !21
  %162 = load ptr, ptr %5, align 8, !tbaa !3
  %163 = getelementptr inbounds nuw %struct.bignum_st, ptr %162, i32 0, i32 3
  store i32 %161, ptr %163, align 8, !tbaa !21
  %164 = load ptr, ptr %5, align 8, !tbaa !3
  %165 = getelementptr inbounds nuw %struct.bignum_st, ptr %164, i32 0, i32 0
  %166 = load ptr, ptr %165, align 8, !tbaa !19
  store ptr %166, ptr %11, align 8, !tbaa !23
  %167 = load ptr, ptr %6, align 8, !tbaa !3
  %168 = getelementptr inbounds nuw %struct.bignum_st, ptr %167, i32 0, i32 0
  %169 = load ptr, ptr %168, align 8, !tbaa !19
  %170 = load i32, ptr %15, align 4, !tbaa !12
  %171 = sext i32 %170 to i64
  %172 = getelementptr inbounds i64, ptr %169, i64 %171
  store ptr %172, ptr %9, align 8, !tbaa !23
  %173 = load ptr, ptr %11, align 8, !tbaa !23
  %174 = load ptr, ptr %9, align 8, !tbaa !23
  %175 = load ptr, ptr %10, align 8, !tbaa !23
  %176 = load i32, ptr %15, align 4, !tbaa !12
  %177 = call i64 @bn_sub_words(ptr noundef %173, ptr noundef %174, ptr noundef %175, i32 noundef %176)
  %178 = load i64, ptr %14, align 8, !tbaa !24
  %179 = sub i64 %178, %177
  store i64 %179, ptr %14, align 8, !tbaa !24
  store i32 0, ptr %17, align 4, !tbaa !12
  br label %180

180:                                              ; preds = %209, %151
  %181 = load i32, ptr %17, align 4, !tbaa !12
  %182 = load i32, ptr %15, align 4, !tbaa !12
  %183 = icmp slt i32 %181, %182
  br i1 %183, label %184, label %212

184:                                              ; preds = %180
  %185 = load i64, ptr %14, align 8, !tbaa !24
  %186 = load ptr, ptr %9, align 8, !tbaa !23
  %187 = load i32, ptr %17, align 4, !tbaa !12
  %188 = sext i32 %187 to i64
  %189 = getelementptr inbounds i64, ptr %186, i64 %188
  %190 = load i64, ptr %189, align 8, !tbaa !24
  %191 = and i64 %185, %190
  %192 = load i64, ptr %14, align 8, !tbaa !24
  %193 = xor i64 %192, -1
  %194 = load ptr, ptr %11, align 8, !tbaa !23
  %195 = load i32, ptr %17, align 4, !tbaa !12
  %196 = sext i32 %195 to i64
  %197 = getelementptr inbounds i64, ptr %194, i64 %196
  %198 = load i64, ptr %197, align 8, !tbaa !24
  %199 = and i64 %193, %198
  %200 = or i64 %191, %199
  %201 = load ptr, ptr %11, align 8, !tbaa !23
  %202 = load i32, ptr %17, align 4, !tbaa !12
  %203 = sext i32 %202 to i64
  %204 = getelementptr inbounds i64, ptr %201, i64 %203
  store i64 %200, ptr %204, align 8, !tbaa !24
  %205 = load ptr, ptr %9, align 8, !tbaa !23
  %206 = load i32, ptr %17, align 4, !tbaa !12
  %207 = sext i32 %206 to i64
  %208 = getelementptr inbounds i64, ptr %205, i64 %207
  store i64 0, ptr %208, align 8, !tbaa !24
  br label %209

209:                                              ; preds = %184
  %210 = load i32, ptr %17, align 4, !tbaa !12
  %211 = add nsw i32 %210, 1
  store i32 %211, ptr %17, align 4, !tbaa !12
  br label %180, !llvm.loop !29

212:                                              ; preds = %180
  store i32 1, ptr %4, align 4
  store i32 1, ptr %19, align 4
  br label %213

213:                                              ; preds = %212, %150, %37, %27
  call void @llvm.lifetime.end.p0(i64 4, ptr %18) #3
  call void @llvm.lifetime.end.p0(i64 4, ptr %17) #3
  call void @llvm.lifetime.end.p0(i64 4, ptr %16) #3
  call void @llvm.lifetime.end.p0(i64 4, ptr %15) #3
  call void @llvm.lifetime.end.p0(i64 8, ptr %14) #3
  call void @llvm.lifetime.end.p0(i64 8, ptr %13) #3
  call void @llvm.lifetime.end.p0(i64 8, ptr %12) #3
  call void @llvm.lifetime.end.p0(i64 8, ptr %11) #3
  call void @llvm.lifetime.end.p0(i64 8, ptr %10) #3
  call void @llvm.lifetime.end.p0(i64 8, ptr %9) #3
  call void @llvm.lifetime.end.p0(i64 8, ptr %8) #3
  %214 = load i32, ptr %4, align 4
  ret i32 %214
}