; Function Attrs: nounwind uwtable
define internal fastcc range(i32 0, 2) i32 @bn_from_montgomery_word(ptr noundef %0, ptr noundef nonnull %1, ptr noundef readonly captures(none) %2) unnamed_addr #0 {
  %4 = getelementptr inbounds nuw i8, ptr %2, i64 32
  %5 = getelementptr inbounds nuw i8, ptr %2, i64 40
  %6 = load i32, ptr %5, align 8, !tbaa !11
  %7 = icmp eq i32 %6, 0
  br i1 %7, label %8, label %10

8:                                                ; preds = %3
  %9 = getelementptr inbounds nuw i8, ptr %0, i64 8
  store i32 0, ptr %9, align 8, !tbaa !11
  br label %.loopexit

10:                                               ; preds = %3
  %11 = shl nsw i32 %6, 1
  %12 = tail call ptr @bn_wexpand(ptr noundef nonnull %1, i32 noundef %11) #5
  %13 = icmp eq ptr %12, null
  br i1 %13, label %.loopexit, label %14

14:                                               ; preds = %10
  %15 = getelementptr inbounds nuw i8, ptr %2, i64 48
  %16 = load i32, ptr %15, align 8, !tbaa !14
  %17 = getelementptr inbounds nuw i8, ptr %1, i64 16
  %18 = load i32, ptr %17, align 8, !tbaa !14
  %19 = xor i32 %18, %16
  store i32 %19, ptr %17, align 8, !tbaa !14
  %20 = load ptr, ptr %4, align 8, !tbaa !12
  %21 = load ptr, ptr %1, align 8, !tbaa !12
  %22 = getelementptr inbounds nuw i8, ptr %1, i64 8
  %23 = load i32, ptr %22, align 8, !tbaa !11
  %24 = icmp sgt i32 %6, 0
  br i1 %24, label %.lr.ph.preheader, label %._crit_edge.thread

._crit_edge.thread:                               ; preds = %14
  store i32 %11, ptr %22, align 8, !tbaa !11
  br label %._crit_edge87

.lr.ph.preheader:                                 ; preds = %14
  %smax = tail call i32 @llvm.smax.i32(i32 %11, i32 1)
  %wide.trip.count = zext nneg i32 %smax to i64
  br label %.lr.ph

.lr.ph:                                           ; preds = %.lr.ph.preheader, %.lr.ph
  %indvars.iv = phi i64 [ 0, %.lr.ph.preheader ], [ %indvars.iv.next, %.lr.ph ]
  %25 = trunc nuw nsw i64 %indvars.iv to i32
  %26 = sub i32 %25, %23
  %27 = getelementptr inbounds nuw i64, ptr %21, i64 %indvars.iv
  %28 = load i64, ptr %27, align 8, !tbaa !15
  %isneg = icmp slt i32 %26, 0
  %29 = select i1 %isneg, i64 %28, i64 0
  store i64 %29, ptr %27, align 8, !tbaa !15
  %indvars.iv.next = add nuw nsw i64 %indvars.iv, 1
  %exitcond.not = icmp eq i64 %indvars.iv.next, %wide.trip.count
  br i1 %exitcond.not, label %._crit_edge, label %.lr.ph, !llvm.loop !17

._crit_edge:                                      ; preds = %.lr.ph
  store i32 %11, ptr %22, align 8, !tbaa !11
  %30 = getelementptr inbounds nuw i8, ptr %2, i64 80
  %31 = load i64, ptr %30, align 8, !tbaa !15
  %32 = zext nneg i32 %6 to i64
  br label %33

33:                                               ; preds = %._crit_edge, %33
  %.184 = phi i32 [ 0, %._crit_edge ], [ %43, %33 ]
  %.07783 = phi ptr [ %21, %._crit_edge ], [ %44, %33 ]
  %.07882 = phi i64 [ 0, %._crit_edge ], [ %42, %33 ]
  %34 = load i64, ptr %.07783, align 8, !tbaa !15
  %35 = mul i64 %34, %31
  %36 = tail call i64 @bn_mul_add_words(ptr noundef nonnull %.07783, ptr noundef %20, i32 noundef %6, i64 noundef %35) #5
  %37 = add i64 %36, %.07882
  %38 = getelementptr inbounds nuw i64, ptr %.07783, i64 %32
  %39 = load i64, ptr %38, align 8, !tbaa !15
  %40 = add i64 %37, %39
  %41 = icmp ne i64 %37, 0
  %.not = icmp ule i64 %40, %39
  %.078.tr = trunc nuw i64 %.07882 to i1
  %.narrow = or i1 %41, %.078.tr
  %narrow = select i1 %.not, i1 %.narrow, i1 false
  %42 = zext i1 %narrow to i64
  store i64 %40, ptr %38, align 8, !tbaa !15
  %43 = add nuw nsw i32 %.184, 1
  %44 = getelementptr inbounds nuw i8, ptr %.07783, i64 8
  %exitcond92.not = icmp eq i32 %43, %6
  br i1 %exitcond92.not, label %._crit_edge87, label %33, !llvm.loop !19

._crit_edge87:                                    ; preds = %33, %._crit_edge.thread
  %.078.lcssa = phi i64 [ 0, %._crit_edge.thread ], [ %42, %33 ]
  %45 = tail call ptr @bn_wexpand(ptr noundef %0, i32 noundef %6) #5
  %46 = icmp eq ptr %45, null
  br i1 %46, label %.loopexit, label %47

47:                                               ; preds = %._crit_edge87
  %48 = getelementptr inbounds nuw i8, ptr %0, i64 8
  store i32 %6, ptr %48, align 8, !tbaa !11
  %49 = load i32, ptr %17, align 8, !tbaa !14
  %50 = getelementptr inbounds nuw i8, ptr %0, i64 16
  store i32 %49, ptr %50, align 8, !tbaa !14
  %51 = load ptr, ptr %0, align 8, !tbaa !12
  %52 = load ptr, ptr %1, align 8, !tbaa !12
  %53 = sext i32 %6 to i64
  %54 = getelementptr inbounds i64, ptr %52, i64 %53
  %55 = tail call i64 @bn_sub_words(ptr noundef %51, ptr noundef nonnull %54, ptr noundef %20, i32 noundef %6) #5
  %56 = sub i64 %.078.lcssa, %55
  br i1 %24, label %.lr.ph90, label %.loopexit

.lr.ph90:                                         ; preds = %47
  %57 = xor i64 %56, -1
  %wide.trip.count96 = zext nneg i32 %6 to i64
  br label %58

58:                                               ; preds = %.lr.ph90, %58
  %indvars.iv93 = phi i64 [ 0, %.lr.ph90 ], [ %indvars.iv.next94, %58 ]
  %59 = getelementptr inbounds nuw i64, ptr %54, i64 %indvars.iv93
  %60 = load i64, ptr %59, align 8, !tbaa !15
  %61 = and i64 %60, %56
  %62 = getelementptr inbounds nuw i64, ptr %51, i64 %indvars.iv93
  %63 = load i64, ptr %62, align 8, !tbaa !15
  %64 = and i64 %63, %57
  %65 = or i64 %64, %61
  store i64 %65, ptr %62, align 8, !tbaa !15
  store i64 0, ptr %59, align 8, !tbaa !15
  %indvars.iv.next94 = add nuw nsw i64 %indvars.iv93, 1
  %exitcond97.not = icmp eq i64 %indvars.iv.next94, %wide.trip.count96
  br i1 %exitcond97.not, label %.loopexit, label %58, !llvm.loop !20

.loopexit:                                        ; preds = %58, %47, %._crit_edge87, %10, %8
  %.0 = phi i32 [ 1, %8 ], [ 0, %10 ], [ 0, %._crit_edge87 ], [ 1, %47 ], [ 1, %58 ]
  ret i32 %.0
}